; Function Attrs: mustprogress nounwind uwtable
define hidden void @_ZN13TemplateTable9anewarrayEv() local_unnamed_addr #0 align 2 {
  %1 = alloca %class.Address, align 16
  %2 = alloca %class.Address, align 16
  %3 = alloca %class.Address, align 16
  tail call void @_ZN13TemplateTable10transitionE8TosStateS0_(i32 noundef 4, i32 noundef 8) #8
  %4 = load ptr, ptr @_ZN13TemplateTable5_masmE, align 8
  %5 = load i8, ptr @PrintInterpreter, align 1
  %6 = trunc i8 %5 to i1
  br i1 %6, label %7, label %_ZN12Disassembler4hookI25InterpreterMacroAssemblerEEPT_PKciS3_.exit

7:                                                ; preds = %0
  tail call void @_ZN12Disassembler5_hookEPKciP14MacroAssembler(ptr noundef nonnull @.str, i32 noundef 4168, ptr noundef %4) #8
  br label %_ZN12Disassembler4hookI25InterpreterMacroAssemblerEEPT_PKciS3_.exit

_ZN12Disassembler4hookI25InterpreterMacroAssemblerEEPT_PKciS3_.exit: ; preds = %0, %7
  tail call void @_ZN25InterpreterMacroAssembler32get_unsigned_2_byte_index_at_bcpE8Registeri(ptr noundef nonnull align 8 dereferenceable(48) %4, i32 2, i32 noundef 1) #8
  %8 = load ptr, ptr @_ZN13TemplateTable5_masmE, align 8
  %9 = load i8, ptr @PrintInterpreter, align 1
  %10 = trunc i8 %9 to i1
  br i1 %10, label %11, label %_ZN12Disassembler4hookI25InterpreterMacroAssemblerEEPT_PKciS3_.exit10

11:                                               ; preds = %_ZN12Disassembler4hookI25InterpreterMacroAssemblerEEPT_PKciS3_.exit
  tail call void @_ZN12Disassembler5_hookEPKciP14MacroAssembler(ptr noundef nonnull @.str, i32 noundef 4169, ptr noundef %8) #8
  br label %_ZN12Disassembler4hookI25InterpreterMacroAssemblerEEPT_PKciS3_.exit10

_ZN12Disassembler4hookI25InterpreterMacroAssemblerEEPT_PKciS3_.exit10: ; preds = %_ZN12Disassembler4hookI25InterpreterMacroAssemblerEEPT_PKciS3_.exit, %11
  call void @llvm.lifetime.start.p0(i64 64, ptr nonnull %3)
  call void @llvm.lifetime.start.p0(i64 64, ptr nonnull %2)
  call void @llvm.lifetime.start.p0(i64 64, ptr nonnull %1)
  store <4 x i32> <i32 5, i32 -1, i32 -1, i32 -1>, ptr %1, align 16
  %12 = getelementptr inbounds i8, ptr %1, i64 16
  store i32 -24, ptr %12, align 16
  %13 = getelementptr inbounds i8, ptr %1, i64 20
  store i8 0, ptr %13, align 4
  %14 = getelementptr inbounds i8, ptr %1, i64 24
  store ptr getelementptr inbounds inrange(-16, 72) (i8, ptr @_ZTV10Relocation, i64 16), ptr %14, align 8
  %15 = getelementptr inbounds i8, ptr %1, i64 32
  store ptr null, ptr %15, align 16
  %16 = getelementptr inbounds i8, ptr %1, i64 40
  store i32 0, ptr %16, align 8
  call void @_ZN14MacroAssembler6movptrE8Register7Address(ptr noundef nonnull align 8 dereferenceable(40) %8, i32 6, ptr noundef nonnull %1) #8
  call void @llvm.lifetime.end.p0(i64 64, ptr nonnull %1)
  store <4 x i32> <i32 6, i32 -1, i32 -1, i32 -1>, ptr %2, align 16
  %17 = getelementptr inbounds i8, ptr %2, i64 16
  store i32 8, ptr %17, align 16
  %18 = getelementptr inbounds i8, ptr %2, i64 20
  store i8 0, ptr %18, align 4
  %19 = getelementptr inbounds i8, ptr %2, i64 24
  store ptr getelementptr inbounds inrange(-16, 72) (i8, ptr @_ZTV10Relocation, i64 16), ptr %19, align 8
  %20 = getelementptr inbounds i8, ptr %2, i64 32
  store ptr null, ptr %20, align 16
  %21 = getelementptr inbounds i8, ptr %2, i64 40
  store i32 0, ptr %21, align 8
  call void @_ZN14MacroAssembler6movptrE8Register7Address(ptr noundef nonnull align 8 dereferenceable(40) %8, i32 6, ptr noundef nonnull %2) #8
  call void @llvm.lifetime.end.p0(i64 64, ptr nonnull %2)
  store <4 x i32> <i32 6, i32 -1, i32 -1, i32 -1>, ptr %3, align 16
  %22 = getelementptr inbounds i8, ptr %3, i64 16
  store i32 8, ptr %22, align 16
  %23 = getelementptr inbounds i8, ptr %3, i64 20
  store i8 0, ptr %23, align 4
  %24 = getelementptr inbounds i8, ptr %3, i64 24
  store ptr getelementptr inbounds inrange(-16, 72) (i8, ptr @_ZTV10Relocation, i64 16), ptr %24, align 8
  %25 = getelementptr inbounds i8, ptr %3, i64 32
  store ptr null, ptr %25, align 16
  %26 = getelementptr inbounds i8, ptr %3, i64 40
  store i32 0, ptr %26, align 8
  call void @_ZN14MacroAssembler6movptrE8Register7Address(ptr noundef nonnull align 8 dereferenceable(40) %8, i32 6, ptr noundef nonnull %3) #8
  call void @llvm.lifetime.end.p0(i64 64, ptr nonnull %3)
  call void @_ZN13TemplateTable7call_VME8RegisterPhS0_S0_S0_(i32 0, ptr noundef nonnull @_ZN18InterpreterRuntime9anewarrayEP10JavaThreadP12ConstantPoolii, i32 6, i32 2, i32 0) #8
  ret void
}